; ModuleID = '41/565.c'
source_filename = "41/565.c"
target datalayout = "e-m:e-p270:32:32-p271:32:32-p272:64:64-i64:64-f80:128-n8:16:32:64-S128"
target triple = "x86_64-pc-linux-gnu"

@.str = private unnamed_addr constant [16 x i8] c"%d %d %d %d %d\0A\00", align 1

; Function Attrs: noinline nounwind uwtable
define dso_local void @main() #0 {
  %1 = alloca i32, align 4
  %2 = alloca i32, align 4
  %3 = alloca i32, align 4
  %4 = alloca i32, align 4
  %5 = alloca i32, align 4
  %6 = alloca i32, align 4
  store i32 0, i32* %6, align 4
  store i32 1, i32* %3, align 4
  %7 = load i32, i32* %3, align 4
  %8 = icmp eq i32 %7, 1
  br i1 %8, label %9, label %56

9:                                                ; preds = %0
  store i32 5, i32* %1, align 4
  store i32 4, i32* %5, align 4
  store i32 3, i32* %4, align 4
  store i32 2, i32* %2, align 4
  %10 = load i32, i32* %5, align 4
  %11 = icmp eq i32 %10, 1
  br i1 %11, label %12, label %15

12:                                               ; preds = %9
  %13 = load i32, i32* %6, align 4
  %14 = add nsw i32 %13, 1
  store i32 %14, i32* %6, align 4
  br label %15

15:                                               ; preds = %12, %9
  %16 = load i32, i32* %2, align 4
  %17 = icmp eq i32 %16, 2
  br i1 %17, label %18, label %21

18:                                               ; preds = %15
  %19 = load i32, i32* %6, align 4
  %20 = add nsw i32 %19, 1
  store i32 %20, i32* %6, align 4
  br label %21

21:                                               ; preds = %18, %15
  %22 = load i32, i32* %1, align 4
  %23 = icmp eq i32 %22, 5
  br i1 %23, label %24, label %27

24:                                               ; preds = %21
  %25 = load i32, i32* %6, align 4
  %26 = add nsw i32 %25, 1
  store i32 %26, i32* %6, align 4
  br label %27

27:                                               ; preds = %24, %21
  %28 = load i32, i32* %3, align 4
  %29 = icmp ne i32 %28, 1
  br i1 %29, label %30, label %33

30:                                               ; preds = %27
  %31 = load i32, i32* %6, align 4
  %32 = add nsw i32 %31, 1
  store i32 %32, i32* %6, align 4
  br label %33

33:                                               ; preds = %30, %27
  %34 = load i32, i32* %4, align 4
  %35 = icmp eq i32 %34, 1
  br i1 %35, label %36, label %39

36:                                               ; preds = %33
  %37 = load i32, i32* %6, align 4
  %38 = add nsw i32 %37, 1
  store i32 %38, i32* %6, align 4
  br label %39

39:                                               ; preds = %36, %33
  %40 = load i32, i32* %6, align 4
  %41 = icmp eq i32 %40, 2
  br i1 %41, label %42, label %55

42:                                               ; preds = %39
  %43 = load i32, i32* %1, align 4
  %44 = icmp eq i32 %43, 5
  br i1 %44, label %45, label %55

45:                                               ; preds = %42
  %46 = load i32, i32* %2, align 4
  %47 = icmp eq i32 %46, 2
  br i1 %47, label %48, label %55

48:                                               ; preds = %45
  %49 = load i32, i32* %1, align 4
  %50 = load i32, i32* %2, align 4
  %51 = load i32, i32* %3, align 4
  %52 = load i32, i32* %4, align 4
  %53 = load i32, i32* %5, align 4
  %54 = call i32 (i8*, ...) @printf(i8* getelementptr inbounds ([16 x i8], [16 x i8]* @.str, i64 0, i64 0), i32 %49, i32 %50, i32 %51, i32 %52, i32 %53)
  br label %55

55:                                               ; preds = %48, %45, %42, %39
  br label %56

56:                                               ; preds = %55, %0
  ret void
}

declare dso_local i32 @printf(i8*, ...) #1


!llvm.module.flags = !{!0}
!llvm.ident = !{!1}

!0 = !{i32 1, !"wchar_size", i32 4}
!1 = !{!"clang version 10.0.0-4ubuntu1 "}
